target datalayout = "e-m:e-p270:32:32-p271:32:32-p272:64:64-i64:64-i128:128-f80:128-n8:16:32:64-S128"
target triple = "x86_64-pc-linux-gnu"

%"class.cv::Mat" = type { i32, i32, i32, i32, ptr, ptr, ptr, ptr, ptr, ptr, %"struct.cv::MatSize", %"struct.cv::MatStep" }
%"struct.cv::MatSize" = type { ptr }
%"struct.cv::MatStep" = type { ptr, [2 x i64] }
%"class.cv::MatExpr" = type { ptr, i32, %"class.cv::Mat", %"class.cv::Mat", %"class.cv::Mat", double, double, %"class.cv::Scalar_" }
%"class.cv::Scalar_" = type { %"class.cv::Vec" }
%"class.cv::Vec" = type { %"class.cv::Matx" }
%"class.cv::Matx" = type { [4 x double] }
%"class.cv::Vec.8" = type { %"class.cv::Matx.9" }
%"class.cv::Matx.9" = type { [2 x float] }

; Function Attrs: inlinehint mustprogress nounwind uwtable
define linkonce_odr hidden void @_ZN2cv4MatxIfLi2ELi1EEC2Ev(ptr noundef nonnull align 4 dereferenceable(8) %0) unnamed_addr #7 comdat align 2 {
  %2 = alloca ptr, align 8
  %3 = alloca i32, align 4
  store ptr %0, ptr %2, align 8, !tbaa !181
  %4 = load ptr, ptr %2, align 8
  call void @llvm.lifetime.start.p0(i64 4, ptr %3) #17
  store i32 0, ptr %3, align 4, !tbaa !10
  br label %5

5:                                                ; preds = %14, %1
  %6 = load i32, ptr %3, align 4, !tbaa !10
  %7 = icmp slt i32 %6, 2
  br i1 %7, label %9, label %8

8:                                                ; preds = %5
  call void @llvm.lifetime.end.p0(i64 4, ptr %3) #17
  br label %17

9:                                                ; preds = %5
  %10 = getelementptr inbounds nuw %"class.cv::Matx.9", ptr %4, i32 0, i32 0
  %11 = load i32, ptr %3, align 4, !tbaa !10
  %12 = sext i32 %11 to i64
  %13 = getelementptr inbounds [2 x float], ptr %10, i64 0, i64 %12
  store float 0.000000e+00, ptr %13, align 4, !tbaa !59
  br label %14

14:                                               ; preds = %9
  %15 = load i32, ptr %3, align 4, !tbaa !10
  %16 = add nsw i32 %15, 1
  store i32 %16, ptr %3, align 4, !tbaa !10
  br label %5, !llvm.loop !186

17:                                               ; preds = %8
  ret void
}

; Function Attrs: inlinehint mustprogress nounwind uwtable
define linkonce_odr hidden noundef nonnull align 4 dereferenceable(4) ptr @_ZNK2cv3VecIfLi2EEixEi(ptr noundef nonnull align 4 dereferenceable(8) %0, i32 noundef %1) #7 comdat align 2 {
  %3 = alloca ptr, align 8
  %4 = alloca i32, align 4
  store ptr %0, ptr %3, align 8, !tbaa !161
  store i32 %1, ptr %4, align 4, !tbaa !10
  %5 = load ptr, ptr %3, align 8
  %6 = getelementptr inbounds nuw %"class.cv::Matx.9", ptr %5, i32 0, i32 0
  %7 = load i32, ptr %4, align 4, !tbaa !10
  %8 = sext i32 %7 to i64
  %9 = getelementptr inbounds [2 x float], ptr %6, i64 0, i64 %8
  ret ptr %9
}

; Function Attrs: inlinehint mustprogress nounwind uwtable
define internal noundef float @_ZN2cvL13saturate_castIfEET_f(float noundef %0) #7 {
  %2 = alloca float, align 4
  store float %0, ptr %2, align 4, !tbaa !59
  %3 = load float, ptr %2, align 4, !tbaa !59
  ret float %3
}

; Function Attrs: inlinehint mustprogress uwtable
define linkonce_odr hidden void @_ZN2cv3VecIfLi2EEC2Ev(ptr noundef nonnull align 4 dereferenceable(8) %0) unnamed_addr #2 comdat align 2 {
  %2 = alloca ptr, align 8
  store ptr %0, ptr %2, align 8, !tbaa !161
  %3 = load ptr, ptr %2, align 8
  call void @_ZN2cv4MatxIfLi2ELi1EEC2Ev(ptr noundef nonnull align 4 dereferenceable(8) %3)
  ret void
}

; Function Attrs: inlinehint mustprogress nounwind uwtable
define linkonce_odr hidden noundef nonnull align 4 dereferenceable(4) ptr @_ZN2cv3Mat2atIfEERT_ii(ptr noundef nonnull align 8 dereferenceable(96) %0, i32 noundef %1, i32 noundef %2) #7 comdat align 2 {
  %4 = alloca ptr, align 8
  %5 = alloca i32, align 4
  %6 = alloca i32, align 4
  store ptr %0, ptr %4, align 8, !tbaa !31
  store i32 %1, ptr %5, align 4, !tbaa !10
  store i32 %2, ptr %6, align 4, !tbaa !10
  %7 = load ptr, ptr %4, align 8
  %8 = getelementptr inbounds nuw %"class.cv::Mat", ptr %7, i32 0, i32 4
  %9 = load ptr, ptr %8, align 8, !tbaa !62
  %10 = getelementptr inbounds nuw %"class.cv::Mat", ptr %7, i32 0, i32 11
  %11 = getelementptr inbounds nuw %"struct.cv::MatStep", ptr %10, i32 0, i32 0
  %12 = load ptr, ptr %11, align 8, !tbaa !145
  %13 = getelementptr inbounds i64, ptr %12, i64 0
  %14 = load i64, ptr %13, align 8, !tbaa !42
  %15 = load i32, ptr %5, align 4, !tbaa !10
  %16 = sext i32 %15 to i64
  %17 = mul i64 %14, %16
  %18 = getelementptr inbounds nuw i8, ptr %9, i64 %17
  %19 = load i32, ptr %6, align 4, !tbaa !10
  %20 = sext i32 %19 to i64
  %21 = getelementptr inbounds float, ptr %18, i64 %20
  ret ptr %21
}

; Function Attrs: inlinehint mustprogress nounwind uwtable
define internal noundef float @_ZN2cv7optflowL4distERKNS_3VecIfLi2EEES4_(ptr noundef nonnull align 4 dereferenceable(8) %0, ptr noundef nonnull align 4 dereferenceable(8) %1) #7 {
  %3 = alloca ptr, align 8
  %4 = alloca ptr, align 8
  %5 = alloca float, align 4
  %6 = alloca float, align 4
  store ptr %0, ptr %3, align 8, !tbaa !161
  store ptr %1, ptr %4, align 8, !tbaa !161
  call void @llvm.lifetime.start.p0(i64 4, ptr %5) #17
  %7 = load ptr, ptr %3, align 8, !tbaa !161
  %8 = call noundef nonnull align 4 dereferenceable(4) ptr @_ZNK2cv3VecIfLi2EEixEi(ptr noundef nonnull align 4 dereferenceable(8) %7, i32 noundef 0)
  %9 = load float, ptr %8, align 4, !tbaa !59
  %10 = load ptr, ptr %4, align 8, !tbaa !161
  %11 = call noundef nonnull align 4 dereferenceable(4) ptr @_ZNK2cv3VecIfLi2EEixEi(ptr noundef nonnull align 4 dereferenceable(8) %10, i32 noundef 0)
  %12 = load float, ptr %11, align 4, !tbaa !59
  %13 = fsub float %9, %12
  store float %13, ptr %5, align 4, !tbaa !59
  call void @llvm.lifetime.start.p0(i64 4, ptr %6) #17
  %14 = load ptr, ptr %3, align 8, !tbaa !161
  %15 = call noundef nonnull align 4 dereferenceable(4) ptr @_ZNK2cv3VecIfLi2EEixEi(ptr noundef nonnull align 4 dereferenceable(8) %14, i32 noundef 1)
  %16 = load float, ptr %15, align 4, !tbaa !59
  %17 = load ptr, ptr %4, align 8, !tbaa !161
  %18 = call noundef nonnull align 4 dereferenceable(4) ptr @_ZNK2cv3VecIfLi2EEixEi(ptr noundef nonnull align 4 dereferenceable(8) %17, i32 noundef 1)
  %19 = load float, ptr %18, align 4, !tbaa !59
  %20 = fsub float %16, %19
  store float %20, ptr %6, align 4, !tbaa !59
  %21 = load float, ptr %5, align 4, !tbaa !59
  %22 = load float, ptr %5, align 4, !tbaa !59
  %23 = load float, ptr %6, align 4, !tbaa !59
  %24 = load float, ptr %6, align 4, !tbaa !59
  %25 = fmul float %23, %24
  %26 = call float @llvm.fmuladd.f32(float %21, float %22, float %25)
  call void @llvm.lifetime.end.p0(i64 4, ptr %6) #17
  call void @llvm.lifetime.end.p0(i64 4, ptr %5) #17
  ret float %26
}

; Function Attrs: inlinehint mustprogress uwtable
define internal void @_ZN2cvngIfLi2EEENS_3VecIT_XT0_EEERKS3_(ptr dead_on_unwind noalias writable sret(%"class.cv::Vec.8") align 4 %0, ptr noundef nonnull align 4 dereferenceable(8) %1) #2 {
  %3 = alloca ptr, align 8
  %4 = alloca ptr, align 8
  %5 = alloca i32, align 4
  store ptr %0, ptr %3, align 8
  store ptr %1, ptr %4, align 8, !tbaa !161
  call void @_ZN2cv3VecIfLi2EEC2Ev(ptr noundef nonnull align 4 dereferenceable(8) %0)
  call void @llvm.lifetime.start.p0(i64 4, ptr %5) #17
  store i32 0, ptr %5, align 4, !tbaa !10
  br label %6

6:                                                ; preds = %23, %2
  %7 = load i32, ptr %5, align 4, !tbaa !10
  %8 = icmp slt i32 %7, 2
  br i1 %8, label %10, label %9

9:                                                ; preds = %6
  call void @llvm.lifetime.end.p0(i64 4, ptr %5) #17
  br label %26

10:                                               ; preds = %6
  %11 = load ptr, ptr %4, align 8, !tbaa !161
  %12 = getelementptr inbounds nuw %"class.cv::Matx.9", ptr %11, i32 0, i32 0
  %13 = load i32, ptr %5, align 4, !tbaa !10
  %14 = sext i32 %13 to i64
  %15 = getelementptr inbounds [2 x float], ptr %12, i64 0, i64 %14
  %16 = load float, ptr %15, align 4, !tbaa !59
  %17 = fneg float %16
  %18 = call noundef float @_ZN2cvL13saturate_castIfEET_f(float noundef %17)
  %19 = getelementptr inbounds nuw %"class.cv::Matx.9", ptr %0, i32 0, i32 0
  %20 = load i32, ptr %5, align 4, !tbaa !10
  %21 = sext i32 %20 to i64
  %22 = getelementptr inbounds [2 x float], ptr %19, i64 0, i64 %21
  store float %18, ptr %22, align 4, !tbaa !59
  br label %23

23:                                               ; preds = %10
  %24 = load i32, ptr %5, align 4, !tbaa !10
  %25 = add nsw i32 %24, 1
  store i32 %25, ptr %5, align 4, !tbaa !10
  br label %6, !llvm.loop !185

26:                                               ; preds = %9
  ret void
}

; Function Attrs: inlinehint mustprogress nounwind uwtable
define linkonce_odr hidden noundef nonnull align 4 dereferenceable(8) ptr @_ZNK2cv3Mat2atINS_3VecIfLi2EEEEERKT_ii(ptr noundef nonnull align 8 dereferenceable(96) %0, i32 noundef %1, i32 noundef %2) #7 comdat align 2 {
  %4 = alloca ptr, align 8
  %5 = alloca i32, align 4
  %6 = alloca i32, align 4
  store ptr %0, ptr %4, align 8, !tbaa !31
  store i32 %1, ptr %5, align 4, !tbaa !10
  store i32 %2, ptr %6, align 4, !tbaa !10
  %7 = load ptr, ptr %4, align 8
  %8 = getelementptr inbounds nuw %"class.cv::Mat", ptr %7, i32 0, i32 4
  %9 = load ptr, ptr %8, align 8, !tbaa !62
  %10 = getelementptr inbounds nuw %"class.cv::Mat", ptr %7, i32 0, i32 11
  %11 = getelementptr inbounds nuw %"struct.cv::MatStep", ptr %10, i32 0, i32 0
  %12 = load ptr, ptr %11, align 8, !tbaa !145
  %13 = getelementptr inbounds i64, ptr %12, i64 0
  %14 = load i64, ptr %13, align 8, !tbaa !42
  %15 = load i32, ptr %5, align 4, !tbaa !10
  %16 = sext i32 %15 to i64
  %17 = mul i64 %14, %16
  %18 = getelementptr inbounds nuw i8, ptr %9, i64 %17
  %19 = load i32, ptr %6, align 4, !tbaa !10
  %20 = sext i32 %19 to i64
  %21 = getelementptr inbounds %"class.cv::Vec.8", ptr %18, i64 %20
  ret ptr %21
}

; Function Attrs: inlinehint mustprogress uwtable
define linkonce_odr hidden noundef nonnull align 8 dereferenceable(96) ptr @_ZN2cv3MataSERKNS_7MatExprE(ptr noundef nonnull align 8 dereferenceable(96) %0, ptr noundef nonnull align 8 dereferenceable(352) %1) #2 comdat align 2 {
  %3 = alloca ptr, align 8
  %4 = alloca ptr, align 8
  store ptr %0, ptr %3, align 8, !tbaa !31
  store ptr %1, ptr %4, align 8, !tbaa !47
  %5 = load ptr, ptr %3, align 8
  %6 = load ptr, ptr %4, align 8, !tbaa !47
  %7 = getelementptr inbounds nuw %"class.cv::MatExpr", ptr %6, i32 0, i32 0
  %8 = load ptr, ptr %7, align 8, !tbaa !49
  %9 = load ptr, ptr %4, align 8, !tbaa !47
  %10 = load ptr, ptr %8, align 8, !tbaa !55
  %11 = getelementptr inbounds ptr, ptr %10, i64 3
  %12 = load ptr, ptr %11, align 8
  call void %12(ptr noundef nonnull align 8 dereferenceable(8) %8, ptr noundef nonnull align 8 dereferenceable(352) %9, ptr noundef nonnull align 8 dereferenceable(96) %5, i32 noundef -1)
  ret ptr %5
}

; Function Attrs: mustprogress uwtable
define internal void @_ZN2cv7optflowL16removeOcclusionsERKNS_3MatES3_fRS1_(ptr noundef nonnull align 8 dereferenceable(96) %0, ptr noundef nonnull align 8 dereferenceable(96) %1, float noundef %2, ptr noundef nonnull align 8 dereferenceable(96) %3) #0 personality ptr @__gxx_personality_v0 {
  %5 = alloca ptr, align 8
  %6 = alloca ptr, align 8
  %7 = alloca float, align 4
  %8 = alloca ptr, align 8
  %9 = alloca i32, align 4
  %10 = alloca i32, align 4
  %11 = alloca %"class.cv::MatExpr", align 8
  %12 = alloca ptr, align 8
  %13 = alloca i32, align 4
  %14 = alloca i32, align 4
  %15 = alloca i32, align 4
  %16 = alloca i32, align 4
  %17 = alloca %"class.cv::Vec.8", align 4
  store ptr %0, ptr %5, align 8, !tbaa !31
  store ptr %1, ptr %6, align 8, !tbaa !31
  store float %2, ptr %7, align 4, !tbaa !59
  store ptr %3, ptr %8, align 8, !tbaa !31
  call void @llvm.lifetime.start.p0(i64 4, ptr %9) #17
  %18 = load ptr, ptr %5, align 8, !tbaa !31
  %19 = getelementptr inbounds nuw %"class.cv::Mat", ptr %18, i32 0, i32 2
  %20 = load i32, ptr %19, align 8, !tbaa !14
  store i32 %20, ptr %9, align 4, !tbaa !10
  call void @llvm.lifetime.start.p0(i64 4, ptr %10) #17
  %21 = load ptr, ptr %5, align 8, !tbaa !31
  %22 = getelementptr inbounds nuw %"class.cv::Mat", ptr %21, i32 0, i32 3
  %23 = load i32, ptr %22, align 4, !tbaa !23
  store i32 %23, ptr %10, align 4, !tbaa !10
  %24 = load ptr, ptr %8, align 8, !tbaa !31
  %25 = getelementptr inbounds nuw %"class.cv::Mat", ptr %24, i32 0, i32 4
  %26 = load ptr, ptr %25, align 8, !tbaa !62
  %27 = icmp ne ptr %26, null
  br i1 %27, label %38, label %28

28:                                               ; preds = %4
  call void @llvm.lifetime.start.p0(i64 352, ptr %11) #17
  %29 = load i32, ptr %9, align 4, !tbaa !10
  %30 = load i32, ptr %10, align 4, !tbaa !10
  call void @_ZN2cv3Mat5zerosEiii(ptr dead_on_unwind writable sret(%"class.cv::MatExpr") align 8 %11, i32 noundef %29, i32 noundef %30, i32 noundef 5)
  %31 = load ptr, ptr %8, align 8, !tbaa !31
  %32 = invoke noundef nonnull align 8 dereferenceable(96) ptr @_ZN2cv3MataSERKNS_7MatExprE(ptr noundef nonnull align 8 dereferenceable(96) %31, ptr noundef nonnull align 8 dereferenceable(352) %11)
          to label %33 unwind label %34

33:                                               ; preds = %28
  call void @_ZN2cv7MatExprD2Ev(ptr noundef nonnull align 8 dereferenceable(352) %11) #17
  call void @llvm.lifetime.end.p0(i64 352, ptr %11) #17
  br label %38

34:                                               ; preds = %28
  %35 = landingpad { ptr, i32 }
          cleanup
  %36 = extractvalue { ptr, i32 } %35, 0
  store ptr %36, ptr %12, align 8
  %37 = extractvalue { ptr, i32 } %35, 1
  store i32 %37, ptr %13, align 4
  call void @_ZN2cv7MatExprD2Ev(ptr noundef nonnull align 8 dereferenceable(352) %11) #17
  call void @llvm.lifetime.end.p0(i64 352, ptr %11) #17
  call void @llvm.lifetime.end.p0(i64 4, ptr %10) #17
  call void @llvm.lifetime.end.p0(i64 4, ptr %9) #17
  br label %81

38:                                               ; preds = %33, %4
  call void @llvm.lifetime.start.p0(i64 4, ptr %14) #17
  store i32 0, ptr %14, align 4, !tbaa !10
  br label %39

39:                                               ; preds = %77, %38
  %40 = load i32, ptr %14, align 4, !tbaa !10
  %41 = load i32, ptr %9, align 4, !tbaa !10
  %42 = icmp slt i32 %40, %41
  br i1 %42, label %44, label %43

43:                                               ; preds = %39
  store i32 2, ptr %15, align 4
  call void @llvm.lifetime.end.p0(i64 4, ptr %14) #17
  br label %80

44:                                               ; preds = %39
  call void @llvm.lifetime.start.p0(i64 4, ptr %16) #17
  store i32 0, ptr %16, align 4, !tbaa !10
  br label %45

45:                                               ; preds = %73, %44
  %46 = load i32, ptr %16, align 4, !tbaa !10
  %47 = load i32, ptr %10, align 4, !tbaa !10
  %48 = icmp slt i32 %46, %47
  br i1 %48, label %50, label %49

49:                                               ; preds = %45
  store i32 5, ptr %15, align 4
  call void @llvm.lifetime.end.p0(i64 4, ptr %16) #17
  br label %76

50:                                               ; preds = %45
  %51 = load ptr, ptr %5, align 8, !tbaa !31
  %52 = load i32, ptr %14, align 4, !tbaa !10
  %53 = load i32, ptr %16, align 4, !tbaa !10
  %54 = call noundef nonnull align 4 dereferenceable(8) ptr @_ZNK2cv3Mat2atINS_3VecIfLi2EEEEERKT_ii(ptr noundef nonnull align 8 dereferenceable(96) %51, i32 noundef %52, i32 noundef %53)
  call void @llvm.lifetime.start.p0(i64 8, ptr %17) #17
  %55 = load ptr, ptr %6, align 8, !tbaa !31
  %56 = load i32, ptr %14, align 4, !tbaa !10
  %57 = load i32, ptr %16, align 4, !tbaa !10
  %58 = call noundef nonnull align 4 dereferenceable(8) ptr @_ZNK2cv3Mat2atINS_3VecIfLi2EEEEERKT_ii(ptr noundef nonnull align 8 dereferenceable(96) %55, i32 noundef %56, i32 noundef %57)
  call void @_ZN2cvngIfLi2EEENS_3VecIT_XT0_EEERKS3_(ptr dead_on_unwind writable sret(%"class.cv::Vec.8") align 4 %17, ptr noundef nonnull align 4 dereferenceable(8) %58)
  %59 = call noundef float @_ZN2cv7optflowL4distERKNS_3VecIfLi2EEES4_(ptr noundef nonnull align 4 dereferenceable(8) %54, ptr noundef nonnull align 4 dereferenceable(8) %17)
  %60 = load float, ptr %7, align 4, !tbaa !59
  %61 = fcmp ogt float %59, %60
  call void @llvm.lifetime.end.p0(i64 8, ptr %17) #17
  br i1 %61, label %62, label %67

62:                                               ; preds = %50
  %63 = load ptr, ptr %8, align 8, !tbaa !31
  %64 = load i32, ptr %14, align 4, !tbaa !10
  %65 = load i32, ptr %16, align 4, !tbaa !10
  %66 = call noundef nonnull align 4 dereferenceable(4) ptr @_ZN2cv3Mat2atIfEERT_ii(ptr noundef nonnull align 8 dereferenceable(96) %63, i32 noundef %64, i32 noundef %65)
  store float 0.000000e+00, ptr %66, align 4, !tbaa !59
  br label %72

67:                                               ; preds = %50
  %68 = load ptr, ptr %8, align 8, !tbaa !31
  %69 = load i32, ptr %14, align 4, !tbaa !10
  %70 = load i32, ptr %16, align 4, !tbaa !10
  %71 = call noundef nonnull align 4 dereferenceable(4) ptr @_ZN2cv3Mat2atIfEERT_ii(ptr noundef nonnull align 8 dereferenceable(96) %68, i32 noundef %69, i32 noundef %70)
  store float 1.000000e+00, ptr %71, align 4, !tbaa !59
  br label %72

72:                                               ; preds = %67, %62
  br label %73

73:                                               ; preds = %72
  %74 = load i32, ptr %16, align 4, !tbaa !10
  %75 = add nsw i32 %74, 1
  store i32 %75, ptr %16, align 4, !tbaa !10
  br label %45, !llvm.loop !63

76:                                               ; preds = %49
  br label %77

77:                                               ; preds = %76
  %78 = load i32, ptr %14, align 4, !tbaa !10
  %79 = add nsw i32 %78, 1
  store i32 %79, ptr %14, align 4, !tbaa !10
  br label %39, !llvm.loop !64

80:                                               ; preds = %43
  call void @llvm.lifetime.end.p0(i64 4, ptr %10) #17
  call void @llvm.lifetime.end.p0(i64 4, ptr %9) #17
  ret void

81:                                               ; preds = %34
  %82 = load ptr, ptr %12, align 8
  %83 = load i32, ptr %13, align 4
  %84 = insertvalue { ptr, i32 } poison, ptr %82, 0
  %85 = insertvalue { ptr, i32 } %84, i32 %83, 1
  resume { ptr, i32 } %85
}