; Function Attrs: mustprogress uwtable
define internal fastcc void @_ZN2cv7optflowL16removeOcclusionsERKNS_3MatES3_fRS1_(ptr noundef nonnull readonly align 8 captures(none) dereferenceable(96) %0, ptr noundef nonnull readonly align 8 captures(none) dereferenceable(96) %1, float noundef %2, ptr noundef nonnull align 8 dereferenceable(96) %3) unnamed_addr #0 personality ptr @__gxx_personality_v0 {
  %5 = alloca %"class.cv::MatExpr", align 8
  %6 = getelementptr inbounds nuw i8, ptr %0, i64 8
  %7 = load i32, ptr %6, align 8, !tbaa !65
  %8 = getelementptr inbounds nuw i8, ptr %0, i64 12
  %9 = load i32, ptr %8, align 4, !tbaa !66
  %10 = getelementptr inbounds nuw i8, ptr %3, i64 16
  %11 = load ptr, ptr %10, align 8, !tbaa !104
  %.not = icmp eq ptr %11, null
  br i1 %.not, label %12, label %22

12:                                               ; preds = %4
  call void @llvm.lifetime.start.p0(i64 352, ptr nonnull %5) #19
  call void @_ZN2cv3Mat5zerosEiii(ptr dead_on_unwind nonnull writable sret(%"class.cv::MatExpr") align 8 %5, i32 noundef %7, i32 noundef %9, i32 noundef 5)
  %13 = load ptr, ptr %5, align 8, !tbaa !30
  %14 = load ptr, ptr %13, align 8, !tbaa !45
  %15 = getelementptr inbounds nuw i8, ptr %14, i64 24
  %16 = load ptr, ptr %15, align 8
  invoke void %16(ptr noundef nonnull align 8 dereferenceable(8) %13, ptr noundef nonnull align 8 dereferenceable(352) %5, ptr noundef nonnull align 8 dereferenceable(96) %3, i32 noundef -1)
          to label %_ZN2cv3MataSERKNS_7MatExprE.exit unwind label %20

_ZN2cv3MataSERKNS_7MatExprE.exit:                 ; preds = %12
  %17 = getelementptr inbounds nuw i8, ptr %5, i64 208
  call void @_ZN2cv3MatD1Ev(ptr noundef nonnull align 8 dereferenceable(96) %17) #19
  %18 = getelementptr inbounds nuw i8, ptr %5, i64 112
  call void @_ZN2cv3MatD1Ev(ptr noundef nonnull align 8 dereferenceable(96) %18) #19
  %19 = getelementptr inbounds nuw i8, ptr %5, i64 16
  call void @_ZN2cv3MatD1Ev(ptr noundef nonnull align 8 dereferenceable(96) %19) #19
  call void @llvm.lifetime.end.p0(i64 352, ptr nonnull %5) #19
  br label %22

20:                                               ; preds = %12
  %21 = landingpad { ptr, i32 }
          cleanup
  call void @_ZN2cv7MatExprD2Ev(ptr noundef nonnull align 8 dereferenceable(352) %5) #19
  call void @llvm.lifetime.end.p0(i64 352, ptr nonnull %5) #19
  resume { ptr, i32 } %21

22:                                               ; preds = %_ZN2cv3MataSERKNS_7MatExprE.exit, %4
  %23 = icmp sgt i32 %7, 0
  br i1 %23, label %.preheader.lr.ph, label %._crit_edge33

.preheader.lr.ph:                                 ; preds = %22
  %24 = icmp sgt i32 %9, 0
  %25 = getelementptr inbounds nuw i8, ptr %0, i64 16
  %26 = load ptr, ptr %25, align 8
  %27 = getelementptr inbounds nuw i8, ptr %1, i64 16
  %28 = load ptr, ptr %27, align 8
  %29 = getelementptr inbounds nuw i8, ptr %3, i64 72
  br i1 %24, label %.preheader.lr.ph.split.us, label %._crit_edge33

.preheader.lr.ph.split.us:                        ; preds = %.preheader.lr.ph
  %30 = getelementptr inbounds nuw i8, ptr %1, i64 72
  %31 = load ptr, ptr %30, align 8
  %32 = getelementptr inbounds nuw i8, ptr %0, i64 72
  %33 = load ptr, ptr %32, align 8
  %34 = load i64, ptr %33, align 8, !tbaa !105
  %35 = load i64, ptr %31, align 8, !tbaa !105
  %wide.trip.count39 = zext nneg i32 %7 to i64
  %wide.trip.count = zext nneg i32 %9 to i64
  br label %.preheader.us

.preheader.us:                                    ; preds = %._crit_edge.us, %.preheader.lr.ph.split.us
  %indvars.iv36 = phi i64 [ %indvars.iv.next37, %._crit_edge.us ], [ 0, %.preheader.lr.ph.split.us ]
  %36 = mul i64 %34, %indvars.iv36
  %37 = getelementptr inbounds nuw i8, ptr %26, i64 %36
  %38 = mul i64 %35, %indvars.iv36
  %39 = getelementptr inbounds nuw i8, ptr %28, i64 %38
  %40 = load ptr, ptr %10, align 8
  %41 = load ptr, ptr %29, align 8
  %42 = load i64, ptr %41, align 8, !tbaa !105
  %43 = mul i64 %42, %indvars.iv36
  %44 = getelementptr inbounds nuw i8, ptr %40, i64 %43
  br label %_ZN2cvngIfLi2EEENS_3VecIT_XT0_EEERKS3_.exit.critedge.us

_ZN2cvngIfLi2EEENS_3VecIT_XT0_EEERKS3_.exit.critedge.us: ; preds = %.preheader.us, %_ZN2cvngIfLi2EEENS_3VecIT_XT0_EEERKS3_.exit.critedge.us
  %indvars.iv = phi i64 [ 0, %.preheader.us ], [ %indvars.iv.next, %_ZN2cvngIfLi2EEENS_3VecIT_XT0_EEERKS3_.exit.critedge.us ]
  %45 = getelementptr inbounds nuw %"class.cv::Vec.8", ptr %37, i64 %indvars.iv
  %46 = getelementptr inbounds nuw %"class.cv::Vec.8", ptr %39, i64 %indvars.iv
  %47 = load float, ptr %46, align 4, !tbaa !106, !noalias !108
  %48 = getelementptr inbounds nuw i8, ptr %46, i64 4
  %49 = load float, ptr %48, align 4, !tbaa !106, !noalias !108
  %.val.us = load float, ptr %45, align 4, !tbaa !106
  %50 = getelementptr i8, ptr %45, i64 4
  %.val27.us = load float, ptr %50, align 4, !tbaa !106
  %51 = fadd float %.val.us, %47
  %52 = fadd float %49, %.val27.us
  %53 = fmul float %52, %52
  %54 = call noundef float @llvm.fmuladd.f32(float %51, float %51, float %53)
  %55 = fcmp ogt float %54, %2
  %56 = getelementptr inbounds nuw float, ptr %44, i64 %indvars.iv
  %. = select i1 %55, float 0.000000e+00, float 1.000000e+00
  store float %., ptr %56, align 4, !tbaa !106
  %indvars.iv.next = add nuw nsw i64 %indvars.iv, 1
  %exitcond.not = icmp eq i64 %indvars.iv.next, %wide.trip.count
  br i1 %exitcond.not, label %._crit_edge.us, label %_ZN2cvngIfLi2EEENS_3VecIT_XT0_EEERKS3_.exit.critedge.us, !llvm.loop !111

._crit_edge.us:                                   ; preds = %_ZN2cvngIfLi2EEENS_3VecIT_XT0_EEERKS3_.exit.critedge.us
  %indvars.iv.next37 = add nuw nsw i64 %indvars.iv36, 1
  %exitcond40.not = icmp eq i64 %indvars.iv.next37, %wide.trip.count39
  br i1 %exitcond40.not, label %._crit_edge33, label %.preheader.us, !llvm.loop !112

._crit_edge33:                                    ; preds = %._crit_edge.us, %.preheader.lr.ph, %22
  ret void
}